; Function Attrs: mustprogress uwtable
define noundef zeroext i1 @_ZN5draco15MetadataEncoder22EncodeGeometryMetadataEPNS_13EncoderBufferEPKNS_16GeometryMetadataE(ptr noundef nonnull readnone align 1 captures(none) dereferenceable(1) %0, ptr noundef %1, ptr noundef captures(address) %2) local_unnamed_addr #3 align 2 {
  %.not = icmp ne ptr %2, null
  br i1 %.not, label %4, label %25

4:                                                ; preds = %3
  %5 = getelementptr inbounds nuw i8, ptr %2, i64 96
  %6 = getelementptr inbounds nuw i8, ptr %2, i64 104
  %7 = load ptr, ptr %6, align 8, !tbaa !51
  %8 = load ptr, ptr %5, align 8, !tbaa !54
  %9 = ptrtoint ptr %7 to i64
  %10 = ptrtoint ptr %8 to i64
  %11 = sub i64 %9, %10
  %12 = lshr exact i64 %11, 3
  %13 = trunc i64 %12 to i32
  %14 = tail call noundef zeroext i1 @_ZN5draco12EncodeVarintIjEEbT_PNS_13EncoderBufferE(i32 noundef %13, ptr noundef %1)
  %15 = load ptr, ptr %5, align 8, !tbaa !55
  %16 = load ptr, ptr %6, align 8, !tbaa !55
  %.not1718 = icmp eq ptr %15, %16
  br i1 %.not1718, label %._crit_edge, label %.lr.ph

._crit_edge:                                      ; preds = %_ZN5draco15MetadataEncoder23EncodeAttributeMetadataEPNS_13EncoderBufferEPKNS_17AttributeMetadataE.exit, %4
  %17 = tail call noundef zeroext i1 @_ZN5draco15MetadataEncoder14EncodeMetadataEPNS_13EncoderBufferEPKNS_8MetadataE(ptr noundef nonnull align 1 dereferenceable(1) %0, ptr noundef %1, ptr noundef nonnull %2)
  br label %25

.lr.ph:                                           ; preds = %4, %_ZN5draco15MetadataEncoder23EncodeAttributeMetadataEPNS_13EncoderBufferEPKNS_17AttributeMetadataE.exit
  %.sroa.014.019 = phi ptr [ %24, %_ZN5draco15MetadataEncoder23EncodeAttributeMetadataEPNS_13EncoderBufferEPKNS_17AttributeMetadataE.exit ], [ %15, %4 ]
  %18 = load ptr, ptr %.sroa.014.019, align 8, !tbaa !56
  %.not.i.not = icmp eq ptr %18, null
  br i1 %.not.i.not, label %_ZN5draco15MetadataEncoder23EncodeAttributeMetadataEPNS_13EncoderBufferEPKNS_17AttributeMetadataE.exit, label %19

19:                                               ; preds = %.lr.ph
  %20 = getelementptr inbounds nuw i8, ptr %18, i64 96
  %21 = load i32, ptr %20, align 8, !tbaa !39
  %22 = tail call noundef zeroext i1 @_ZN5draco12EncodeVarintIjEEbT_PNS_13EncoderBufferE(i32 noundef %21, ptr noundef %1)
  %23 = tail call noundef zeroext i1 @_ZN5draco15MetadataEncoder14EncodeMetadataEPNS_13EncoderBufferEPKNS_8MetadataE(ptr noundef nonnull readnone align 1 dereferenceable(1) %0, ptr noundef %1, ptr noundef nonnull %18)
  br label %_ZN5draco15MetadataEncoder23EncodeAttributeMetadataEPNS_13EncoderBufferEPKNS_17AttributeMetadataE.exit

_ZN5draco15MetadataEncoder23EncodeAttributeMetadataEPNS_13EncoderBufferEPKNS_17AttributeMetadataE.exit: ; preds = %.lr.ph, %19
  %24 = getelementptr inbounds nuw i8, ptr %.sroa.014.019, i64 8
  %.not17 = icmp eq ptr %24, %16
  br i1 %.not17, label %._crit_edge, label %.lr.ph

25:                                               ; preds = %3, %._crit_edge
  ret i1 %.not
}